; ModuleID = '38/1251.c'
source_filename = "38/1251.c"
target datalayout = "e-m:e-p270:32:32-p271:32:32-p272:64:64-i64:64-f80:128-n8:16:32:64-S128"
target triple = "x86_64-pc-linux-gnu"

@.str = private unnamed_addr constant [3 x i8] c"%d\00", align 1
@.str.1 = private unnamed_addr constant [4 x i8] c"%lf\00", align 1
@.str.2 = private unnamed_addr constant [7 x i8] c"%.5lf\0A\00", align 1

; Function Attrs: noinline nounwind uwtable
define dso_local i32 @main() #0 {
  %1 = alloca i32, align 4
  %2 = alloca i32, align 4
  %3 = alloca i32, align 4
  %4 = alloca i32, align 4
  %5 = alloca i32, align 4
  %6 = alloca double*, align 8
  %7 = alloca double, align 8
  %8 = alloca double, align 8
  %9 = alloca double, align 8
  %10 = alloca double, align 8
  store i32 0, i32* %1, align 4
  store double 0.000000e+00, double* %7, align 8
  store double 0.000000e+00, double* %9, align 8
  %11 = call i32 (i8*, ...) @__isoc99_scanf(i8* getelementptr inbounds ([3 x i8], [3 x i8]* @.str, i64 0, i64 0), i32* %4)
  store i32 0, i32* %2, align 4
  br label %12

12:                                               ; preds = %81, %0
  %13 = load i32, i32* %2, align 4
  %14 = load i32, i32* %4, align 4
  %15 = icmp slt i32 %13, %14
  br i1 %15, label %16, label %84

16:                                               ; preds = %12
  %17 = call i32 (i8*, ...) @__isoc99_scanf(i8* getelementptr inbounds ([3 x i8], [3 x i8]* @.str, i64 0, i64 0), i32* %5)
  %18 = load i32, i32* %5, align 4
  %19 = sext i32 %18 to i64
  %20 = mul i64 8, %19
  %21 = call noalias i8* @malloc(i64 %20) #3
  %22 = bitcast i8* %21 to double*
  store double* %22, double** %6, align 8
  store double 0.000000e+00, double* %7, align 8
  store i32 0, i32* %3, align 4
  br label %23

23:                                               ; preds = %40, %16
  %24 = load i32, i32* %3, align 4
  %25 = load i32, i32* %5, align 4
  %26 = icmp slt i32 %24, %25
  br i1 %26, label %27, label %43

27:                                               ; preds = %23
  %28 = load double*, double** %6, align 8
  %29 = load i32, i32* %3, align 4
  %30 = sext i32 %29 to i64
  %31 = getelementptr inbounds double, double* %28, i64 %30
  %32 = call i32 (i8*, ...) @__isoc99_scanf(i8* getelementptr inbounds ([4 x i8], [4 x i8]* @.str.1, i64 0, i64 0), double* %31)
  %33 = load double*, double** %6, align 8
  %34 = load i32, i32* %3, align 4
  %35 = sext i32 %34 to i64
  %36 = getelementptr inbounds double, double* %33, i64 %35
  %37 = load double, double* %36, align 8
  %38 = load double, double* %7, align 8
  %39 = fadd double %38, %37
  store double %39, double* %7, align 8
  br label %40

40:                                               ; preds = %27
  %41 = load i32, i32* %3, align 4
  %42 = add nsw i32 %41, 1
  store i32 %42, i32* %3, align 4
  br label %23

43:                                               ; preds = %23
  %44 = load double, double* %7, align 8
  %45 = load i32, i32* %5, align 4
  %46 = sitofp i32 %45 to double
  %47 = fdiv double %44, %46
  store double %47, double* %8, align 8
  store double 0.000000e+00, double* %9, align 8
  store i32 0, i32* %3, align 4
  br label %48

48:                                               ; preds = %75, %43
  %49 = load i32, i32* %3, align 4
  %50 = load i32, i32* %5, align 4
  %51 = icmp slt i32 %49, %50
  br i1 %51, label %52, label %78

52:                                               ; preds = %48
  %53 = load double*, double** %6, align 8
  %54 = load i32, i32* %3, align 4
  %55 = sext i32 %54 to i64
  %56 = getelementptr inbounds double, double* %53, i64 %55
  %57 = load double, double* %56, align 8
  %58 = load double, double* %8, align 8
  %59 = fsub double %57, %58
  %60 = load double*, double** %6, align 8
  %61 = load i32, i32* %3, align 4
  %62 = sext i32 %61 to i64
  %63 = getelementptr inbounds double, double* %60, i64 %62
  %64 = load double, double* %63, align 8
  %65 = load double, double* %8, align 8
  %66 = fsub double %64, %65
  %67 = fmul double %59, %66
  %68 = load double, double* %9, align 8
  %69 = fadd double %68, %67
  store double %69, double* %9, align 8
  %70 = load double, double* %9, align 8
  %71 = load i32, i32* %5, align 4
  %72 = sitofp i32 %71 to double
  %73 = fdiv double %70, %72
  %74 = call double @sqrt(double %73) #3
  store double %74, double* %10, align 8
  br label %75

75:                                               ; preds = %52
  %76 = load i32, i32* %3, align 4
  %77 = add nsw i32 %76, 1
  store i32 %77, i32* %3, align 4
  br label %48

78:                                               ; preds = %48
  %79 = load double, double* %10, align 8
  %80 = call i32 (i8*, ...) @printf(i8* getelementptr inbounds ([7 x i8], [7 x i8]* @.str.2, i64 0, i64 0), double %79)
  br label %81

81:                                               ; preds = %78
  %82 = load i32, i32* %2, align 4
  %83 = add nsw i32 %82, 1
  store i32 %83, i32* %2, align 4
  br label %12

84:                                               ; preds = %12
  %85 = load double*, double** %6, align 8
  %86 = bitcast double* %85 to i8*
  call void @free(i8* %86) #3
  ret i32 0
}

declare dso_local i32 @__isoc99_scanf(i8*, ...) #1

; Function Attrs: nounwind
declare dso_local noalias i8* @malloc(i64) #2

; Function Attrs: nounwind
declare dso_local double @sqrt(double) #2

declare dso_local i32 @printf(i8*, ...) #1

; Function Attrs: nounwind
declare dso_local void @free(i8*) #2


!llvm.module.flags = !{!0}
!llvm.ident = !{!1}

!0 = !{i32 1, !"wchar_size", i32 4}
!1 = !{!"clang version 10.0.0-4ubuntu1 "}
