; ModuleID = 'source-C-CXX/37/1251.c'
source_filename = "source-C-CXX/37/1251.c"
target datalayout = "e-m:e-p270:32:32-p271:32:32-p272:64:64-i64:64-f80:128-n8:16:32:64-S128"
target triple = "x86_64-pc-linux-gnu"

@.str = private unnamed_addr constant [3 x i8] c"%d\00", align 1
@.str.1 = private unnamed_addr constant [4 x i8] c"%lf\00", align 1
@.str.2 = private unnamed_addr constant [7 x i8] c"%.5lf\0A\00", align 1

; Function Attrs: nounwind sspstrong uwtable
define dso_local i32 @main() local_unnamed_addr #0 {
  %1 = alloca i32, align 4
  %2 = alloca i32, align 4
  %3 = bitcast i32* %1 to i8*
  call void @llvm.lifetime.start.p0i8(i64 4, i8* nonnull %3) #6
  %4 = bitcast i32* %2 to i8*
  call void @llvm.lifetime.start.p0i8(i64 4, i8* nonnull %4) #6
  %5 = call i32 (i8*, ...) @__isoc99_scanf(i8* getelementptr inbounds ([3 x i8], [3 x i8]* @.str, i64 0, i64 0), i32* nonnull %1)
  br label %6

6:                                                ; preds = %0, %47
  %7 = phi double [ %48, %47 ], [ undef, %0 ]
  %8 = phi i32 [ %50, %47 ], [ 0, %0 ]
  %9 = call i32 (i8*, ...) @__isoc99_scanf(i8* getelementptr inbounds ([3 x i8], [3 x i8]* @.str, i64 0, i64 0), i32* nonnull %2)
  %10 = load i32, i32* %2, align 4, !tbaa !5
  %11 = sext i32 %10 to i64
  %12 = shl nsw i64 %11, 3
  %13 = call noalias align 16 i8* @malloc(i64 %12) #6
  %14 = bitcast i8* %13 to double*
  %15 = icmp sgt i32 %10, 0
  br i1 %15, label %16, label %47

16:                                               ; preds = %6, %16
  %17 = phi i64 [ %23, %16 ], [ 0, %6 ]
  %18 = phi double [ %22, %16 ], [ 0.000000e+00, %6 ]
  %19 = getelementptr inbounds double, double* %14, i64 %17
  %20 = call i32 (i8*, ...) @__isoc99_scanf(i8* getelementptr inbounds ([4 x i8], [4 x i8]* @.str.1, i64 0, i64 0), double* %19)
  %21 = load double, double* %19, align 8, !tbaa !9
  %22 = fadd double %18, %21
  %23 = add nuw nsw i64 %17, 1
  %24 = load i32, i32* %2, align 4, !tbaa !5
  %25 = sext i32 %24 to i64
  %26 = icmp slt i64 %23, %25
  br i1 %26, label %16, label %27, !llvm.loop !11

27:                                               ; preds = %16
  %28 = sitofp i32 %24 to double
  %29 = fdiv double %22, %28
  %30 = icmp sgt i32 %24, 0
  br i1 %30, label %31, label %47

31:                                               ; preds = %27, %31
  %32 = phi i64 [ %43, %31 ], [ 0, %27 ]
  %33 = phi i32 [ %44, %31 ], [ %24, %27 ]
  %34 = phi double [ %39, %31 ], [ 0.000000e+00, %27 ]
  %35 = getelementptr inbounds double, double* %14, i64 %32
  %36 = load double, double* %35, align 8, !tbaa !9
  %37 = fsub double %36, %29
  %38 = fmul double %37, %37
  %39 = fadd double %34, %38
  %40 = sitofp i32 %33 to double
  %41 = fdiv double %39, %40
  %42 = call double @sqrt(double %41) #6
  %43 = add nuw nsw i64 %32, 1
  %44 = load i32, i32* %2, align 4, !tbaa !5
  %45 = sext i32 %44 to i64
  %46 = icmp slt i64 %43, %45
  br i1 %46, label %31, label %47, !llvm.loop !13

47:                                               ; preds = %31, %6, %27
  %48 = phi double [ %7, %27 ], [ %7, %6 ], [ %42, %31 ]
  %49 = call i32 (i8*, ...) @printf(i8* nonnull dereferenceable(1) getelementptr inbounds ([7 x i8], [7 x i8]* @.str.2, i64 0, i64 0), double %48)
  %50 = add nuw nsw i32 %8, 1
  %51 = load i32, i32* %1, align 4, !tbaa !5
  %52 = icmp slt i32 %50, %51
  br i1 %52, label %6, label %53, !llvm.loop !14

53:                                               ; preds = %47
  call void @free(i8* %13) #6
  call void @llvm.lifetime.end.p0i8(i64 4, i8* nonnull %4) #6
  call void @llvm.lifetime.end.p0i8(i64 4, i8* nonnull %3) #6
  ret i32 0
}

; Function Attrs: argmemonly mustprogress nofree nosync nounwind willreturn
declare void @llvm.lifetime.start.p0i8(i64 immarg, i8* nocapture) #1

; Function Attrs: nofree nounwind
declare noundef i32 @__isoc99_scanf(i8* nocapture noundef readonly, ...) local_unnamed_addr #2

; Function Attrs: inaccessiblememonly mustprogress nofree nounwind willreturn
declare noalias noundef align 16 i8* @malloc(i64 noundef) local_unnamed_addr #3

; Function Attrs: mustprogress nofree nounwind willreturn
declare double @sqrt(double) local_unnamed_addr #4

; Function Attrs: nofree nounwind
declare noundef i32 @printf(i8* nocapture noundef readonly, ...) local_unnamed_addr #2

; Function Attrs: inaccessiblemem_or_argmemonly mustprogress nounwind willreturn
declare void @free(i8* nocapture noundef) local_unnamed_addr #5

; Function Attrs: argmemonly mustprogress nofree nosync nounwind willreturn
declare void @llvm.lifetime.end.p0i8(i64 immarg, i8* nocapture) #1


!llvm.module.flags = !{!0, !1, !2, !3}
!llvm.ident = !{!4}

!0 = !{i32 1, !"wchar_size", i32 4}
!1 = !{i32 7, !"PIC Level", i32 2}
!2 = !{i32 7, !"PIE Level", i32 2}
!3 = !{i32 7, !"uwtable", i32 1}
!4 = !{!"clang version 13.0.0"}
!5 = !{!6, !6, i64 0}
!6 = !{!"int", !7, i64 0}
!7 = !{!"omnipotent char", !8, i64 0}
!8 = !{!"Simple C/C++ TBAA"}
!9 = !{!10, !10, i64 0}
!10 = !{!"double", !7, i64 0}
!11 = distinct !{!11, !12}
!12 = !{!"llvm.loop.mustprogress"}
!13 = distinct !{!13, !12}
!14 = distinct !{!14, !12}
